target datalayout = "e-m:e-p270:32:32-p271:32:32-p272:64:64-i64:64-i128:128-f80:128-n8:16:32:64-S128"
target triple = "x86_64-pc-linux-gnu"

%struct.AVTXContext = type { i32, i32, ptr, ptr, ptr, ptr, [4 x ptr], i32, [4 x ptr], ptr, i32, i64, i32, float, double, ptr }

; Function Attrs: nounwind uwtable
define internal void @ff_tx_dstI_float_c(ptr noundef %0, ptr noundef %1, ptr noundef %2, i64 noundef %3) #4 {
  %5 = alloca ptr, align 8
  %6 = alloca ptr, align 8
  %7 = alloca ptr, align 8
  %8 = alloca i64, align 8
  %9 = alloca ptr, align 8
  %10 = alloca ptr, align 8
  %11 = alloca i32, align 4
  %12 = alloca ptr, align 8
  %13 = alloca i32, align 4
  %14 = alloca float, align 4
  store ptr %0, ptr %5, align 8, !tbaa !17
  store ptr %1, ptr %6, align 8, !tbaa !8
  store ptr %2, ptr %7, align 8, !tbaa !8
  store i64 %3, ptr %8, align 8, !tbaa !30
  call void @llvm.lifetime.start.p0(i64 8, ptr %9) #10
  %15 = load ptr, ptr %6, align 8, !tbaa !8
  store ptr %15, ptr %9, align 8, !tbaa !39
  call void @llvm.lifetime.start.p0(i64 8, ptr %10) #10
  %16 = load ptr, ptr %7, align 8, !tbaa !8
  store ptr %16, ptr %10, align 8, !tbaa !39
  call void @llvm.lifetime.start.p0(i64 4, ptr %11) #10
  %17 = load ptr, ptr %5, align 8, !tbaa !17
  %18 = getelementptr inbounds nuw %struct.AVTXContext, ptr %17, i32 0, i32 0
  %19 = load i32, ptr %18, align 8, !tbaa !21
  %20 = add nsw i32 %19, 1
  store i32 %20, ptr %11, align 4, !tbaa !4
  call void @llvm.lifetime.start.p0(i64 8, ptr %12) #10
  %21 = load ptr, ptr %5, align 8, !tbaa !17
  %22 = getelementptr inbounds nuw %struct.AVTXContext, ptr %21, i32 0, i32 4
  %23 = load ptr, ptr %22, align 8, !tbaa !67
  store ptr %23, ptr %12, align 8, !tbaa !39
  %24 = load i64, ptr %8, align 8, !tbaa !30
  %25 = udiv i64 %24, 4
  store i64 %25, ptr %8, align 8, !tbaa !30
  %26 = load ptr, ptr %12, align 8, !tbaa !39
  %27 = getelementptr inbounds float, ptr %26, i64 0
  store float 0.000000e+00, ptr %27, align 4, !tbaa !36
  call void @llvm.lifetime.start.p0(i64 4, ptr %13) #10
  store i32 1, ptr %13, align 4, !tbaa !4
  br label %28

28:                                               ; preds = %56, %4
  %29 = load i32, ptr %13, align 4, !tbaa !4
  %30 = load i32, ptr %11, align 4, !tbaa !4
  %31 = icmp slt i32 %29, %30
  br i1 %31, label %33, label %32

32:                                               ; preds = %28
  call void @llvm.lifetime.end.p0(i64 4, ptr %13) #10
  br label %59

33:                                               ; preds = %28
  call void @llvm.lifetime.start.p0(i64 4, ptr %14) #10
  %34 = load ptr, ptr %10, align 8, !tbaa !39
  %35 = load i32, ptr %13, align 4, !tbaa !4
  %36 = sub nsw i32 %35, 1
  %37 = sext i32 %36 to i64
  %38 = load i64, ptr %8, align 8, !tbaa !30
  %39 = mul nsw i64 %37, %38
  %40 = getelementptr inbounds float, ptr %34, i64 %39
  %41 = load float, ptr %40, align 4, !tbaa !36
  store float %41, ptr %14, align 4, !tbaa !36
  %42 = load float, ptr %14, align 4, !tbaa !36
  %43 = fneg nsz float %42
  %44 = load ptr, ptr %12, align 8, !tbaa !39
  %45 = load i32, ptr %13, align 4, !tbaa !4
  %46 = sext i32 %45 to i64
  %47 = getelementptr inbounds float, ptr %44, i64 %46
  store float %43, ptr %47, align 4, !tbaa !36
  %48 = load float, ptr %14, align 4, !tbaa !36
  %49 = load ptr, ptr %12, align 8, !tbaa !39
  %50 = load i32, ptr %11, align 4, !tbaa !4
  %51 = mul nsw i32 2, %50
  %52 = load i32, ptr %13, align 4, !tbaa !4
  %53 = sub nsw i32 %51, %52
  %54 = sext i32 %53 to i64
  %55 = getelementptr inbounds float, ptr %49, i64 %54
  store float %48, ptr %55, align 4, !tbaa !36
  call void @llvm.lifetime.end.p0(i64 4, ptr %14) #10
  br label %56

56:                                               ; preds = %33
  %57 = load i32, ptr %13, align 4, !tbaa !4
  %58 = add nsw i32 %57, 1
  store i32 %58, ptr %13, align 4, !tbaa !4
  br label %28, !llvm.loop !171

59:                                               ; preds = %32
  %60 = load ptr, ptr %12, align 8, !tbaa !39
  %61 = load i32, ptr %11, align 4, !tbaa !4
  %62 = sext i32 %61 to i64
  %63 = getelementptr inbounds float, ptr %60, i64 %62
  store float 0.000000e+00, ptr %63, align 4, !tbaa !36
  %64 = load ptr, ptr %5, align 8, !tbaa !17
  %65 = getelementptr inbounds nuw %struct.AVTXContext, ptr %64, i32 0, i32 6
  %66 = getelementptr inbounds [4 x ptr], ptr %65, i64 0, i64 0
  %67 = load ptr, ptr %66, align 8, !tbaa !8
  %68 = load ptr, ptr %5, align 8, !tbaa !17
  %69 = getelementptr inbounds nuw %struct.AVTXContext, ptr %68, i32 0, i32 5
  %70 = load ptr, ptr %69, align 8, !tbaa !68
  %71 = getelementptr inbounds %struct.AVTXContext, ptr %70, i64 0
  %72 = load ptr, ptr %9, align 8, !tbaa !39
  %73 = load ptr, ptr %12, align 8, !tbaa !39
  call void %67(ptr noundef %71, ptr noundef %72, ptr noundef %73, i64 noundef 4)
  call void @llvm.lifetime.end.p0(i64 8, ptr %12) #10
  call void @llvm.lifetime.end.p0(i64 4, ptr %11) #10
  call void @llvm.lifetime.end.p0(i64 8, ptr %10) #10
  call void @llvm.lifetime.end.p0(i64 8, ptr %9) #10
  ret void
}